Certificate:
    Data:
        Version: 3 (0x2)
        Serial Number: 1 (0x1)
        Signature Algorithm: sha256WithRSAEncryption
        Issuer: C=US, ST=CA, L=Los Angeles, O=Constant Digital Holdings, LLC, OU=Not For Production Use, CN=Constant Digital Holdings, LLC - Dev/emailAddress=sean@constantdigital.com
        Validity
            Not Before: Dec 16 19:51:35 2022 GMT
            Not After : May  2 19:51:35 2050 GMT
        Subject: C=US, ST=CA, L=Los Angeles, O=Constant Digital Holdings, LLC - For Dev Use ONLY, CN=Constant Digital Holdings, LLC - Not For Production Use
        Subject Public Key Info:
            Public Key Algorithm: rsaEncryption
                RSA Public-Key: (2048 bit)
                Modulus:
                    00:eb:be:92:e2:41:d4:de:e0:26:12:76:14:c7:3b:
                    b7:8f:a8:cd:ef:84:cf:c3:53:df:1b:6f:ad:12:e2:
                    83:26:9e:cf:2c:2b:50:af:68:e7:39:b4:64:45:6f:
                    72:1e:51:70:35:48:a8:48:71:5b:59:a7:85:54:0c:
                    a8:c5:82:fd:55:99:d0:05:79:96:84:ab:2e:3f:4a:
                    25:1b:27:cb:7a:1d:ea:46:a6:06:7d:79:eb:38:2d:
                    2d:60:46:94:d1:98:e8:b8:78:7b:aa:89:76:db:f6:
                    89:7d:57:18:ea:86:a8:b0:b9:c4:1d:a2:5c:bd:3c:
                    71:13:5d:2c:4f:7b:8a:ff:f9:94:ca:3d:1e:ad:11:
                    97:eb:a6:6b:91:59:9a:34:f6:ef:8c:7b:79:d9:1c:
                    3f:f3:e1:76:9d:9b:1e:3b:5d:04:65:53:ac:5d:4d:
                    60:3e:f8:1b:3f:c0:cf:32:ad:87:93:5f:f5:05:4f:
                    7c:13:26:9a:df:d9:43:b6:90:19:5f:73:ca:df:b7:
                    05:47:a1:e3:ee:59:a9:5c:b1:02:d5:13:dc:33:67:
                    fc:7f:50:78:14:88:49:ce:32:1e:e8:bd:14:8b:ba:
                    6c:4c:70:4c:da:fc:22:07:ea:1d:b5:3f:82:5c:36:
                    f5:e2:2c:50:3c:d4:7d:0a:e6:5b:09:51:5c:a4:5c:
                    02:e5
                Exponent: 65537 (0x10001)
        X509v3 extensions:
            X509v3 Subject Key Identifier: 
                96:63:F2:DD:3E:4D:4D:4A:2E:F1:3F:6D:1F:FD:41:20:EC:13:A9:9A
            X509v3 Authority Key Identifier: 
                keyid:90:C3:38:A0:3E:41:71:0B:F9:85:93:B3:99:BA:96:D0:A2:25:1B:A8

            X509v3 Basic Constraints: 
                CA:FALSE
            X509v3 Key Usage: 
                Digital Signature, Key Encipherment
            X509v3 Subject Alternative Name: 
                DNS:localhost, DNS:localhost.localdomain, DNS:127.0.0.1, DNS:::1, DNS:fe80::1, IP Address:127.0.0.1, IP Address:0:0:0:0:0:0:0:1
            Netscape Comment: 
                OpenSSL Generated Certificate
    Signature Algorithm: sha256WithRSAEncryption
         73:68:35:70:f6:cf:48:b7:ed:8a:ba:4f:42:37:ca:20:d2:7e:
         73:09:f4:f9:da:00:55:96:b1:a4:3a:fa:16:47:37:da:7c:9f:
         30:4a:f2:7a:0e:60:ba:63:bf:46:57:22:f3:3d:d5:00:29:ae:
         f8:8e:67:7b:38:5b:ef:aa:b3:b0:2b:5a:4d:fb:ad:bb:5d:2d:
         14:ab:92:e4:c4:b5:46:fe:9a:18:da:94:f4:ae:a7:9a:c0:c1:
         8c:9a:14:5a:01:b2:84:12:82:9e:60:1c:0a:fa:7b:53:10:98:
         84:53:6f:35:a8:7a:4b:71:8e:56:87:17:12:e3:cf:3a:e2:be:
         e3:c0:3b:51:1f:f9:de:53:b2:94:63:2e:21:03:74:94:30:70:
         ad:db:6b:3c:bf:d6:ee:b7:78:b6:c5:8b:85:e5:12:a3:4a:7a:
         57:24:85:c6:f4:a2:ef:55:e7:4e:b5:52:a2:50:6d:75:f4:5e:
         af:f5:9e:b5:c4:59:22:d5:b7:87:21:bc:23:d2:ed:cd:08:a7:
         a1:a5:25:76:0f:ef:4e:1a:3f:07:88:63:46:3c:e9:71:f6:49:
         62:35:d6:e1:d4:2f:44:ab:23:a3:a3:78:4c:45:51:1c:4b:7a:
         02:60:b5:3d:86:2b:83:c5:bd:f1:97:50:b2:33:06:4e:48:01:
         0a:2f:24:a1:e9:e6:97:51:1c:55:49:7e:08:0e:92:d0:69:ca:
         cc:71:af:3d:fb:a3:35:d0:5d:87:7a:28:32:1f:f8:5c:5f:f1:
         1d:9a:2e:27:e1:2f:41:33:5d:b1:08:7e:d6:25:03:41:42:b7:
         50:6c:0f:d1:f3:20:58:ed:12:0e:58:30:32:8b:0d:75:ef:c3:
         12:b8:0d:97:17:6c:51:62:49:12:6b:a7:01:3c:c6:51:1e:6c:
         da:d9:0d:fc:8f:82:45:5d:52:9f:e7:23:5a:4a:76:a5:aa:68:
         41:9e:33:5b:77:a6:ba:af:1e:7e:05:a2:ae:cf:1d:cc:a7:b0:
         f7:60:fb:11:4c:e1:7b:17:70:7f:01:7b:d3:0e:8a:5e:c1:a0:
         80:6a:5d:5a:80:a8:60:79:34:19:68:47:34:ef:4b:cc:50:81:
         df:18:e1:df:59:06:6c:9a:d3:a4:8c:38:ea:1f:a6:e9:e6:8b:
         60:90:7b:25:ce:f7:f0:26:64:04:1c:20:94:e7:49:a1:66:3f:
         ec:1f:02:31:bd:75:c9:8d:39:2a:31:87:a5:ad:bd:0e:e2:68:
         2d:5b:36:76:79:90:97:9e:9d:36:69:a5:f2:ac:c7:59:87:a6:
         db:80:9d:ac:1a:34:d2:d2:bd:ec:29:3d:a3:08:52:99:48:cb:
         a2:04:75:44:87:47:91:94
-----BEGIN CERTIFICATE-----
MIIF5zCCA8+gAwIBAgIBATANBgkqhkiG9w0BAQsFADCB0jELMAkGA1UEBhMCVVMx
CzAJBgNVBAgMAkNBMRQwEgYDVQQHDAtMb3MgQW5nZWxlczEnMCUGA1UECgweQ29u
c3RhbnQgRGlnaXRhbCBIb2xkaW5ncywgTExDMR8wHQYDVQQLDBZOb3QgRm9yIFBy
b2R1Y3Rpb24gVXNlMS0wKwYDVQQDDCRDb25zdGFudCBEaWdpdGFsIEhvbGRpbmdz
LCBMTEMgLSBEZXYxJzAlBgkqhkiG9w0BCQEWGHNlYW5AY29uc3RhbnRkaWdpdGFs
LmNvbTAgFw0yMjEyMTYxOTUxMzVaGA8yMDUwMDUwMjE5NTEzNVowga4xCzAJBgNV
BAYTAlVTMQswCQYDVQQIDAJDQTEUMBIGA1UEBwwLTG9zIEFuZ2VsZXMxOjA4BgNV
BAoMMUNvbnN0YW50IERpZ2l0YWwgSG9sZGluZ3MsIExMQyAtIEZvciBEZXYgVXNl
IE9OTFkxQDA+BgNVBAMMN0NvbnN0YW50IERpZ2l0YWwgSG9sZGluZ3MsIExMQyAt
IE5vdCBGb3IgUHJvZHVjdGlvbiBVc2UwggEiMA0GCSqGSIb3DQEBAQUAA4IBDwAw
ggEKAoIBAQDrvpLiQdTe4CYSdhTHO7ePqM3vhM/DU98bb60S4oMmns8sK1CvaOc5
tGRFb3IeUXA1SKhIcVtZp4VUDKjFgv1VmdAFeZaEqy4/SiUbJ8t6HepGpgZ9ees4
LS1gRpTRmOi4eHuqiXbb9ol9VxjqhqiwucQdoly9PHETXSxPe4r/+ZTKPR6tEZfr
pmuRWZo09u+Me3nZHD/z4Xadmx47XQRlU6xdTWA++Bs/wM8yrYeTX/UFT3wTJprf
2UO2kBlfc8rftwVHoePuWalcsQLVE9wzZ/x/UHgUiEnOMh7ovRSLumxMcEza/CIH
6h21P4JcNvXiLFA81H0K5lsJUVykXALlAgMBAAGjgecwgeQwHQYDVR0OBBYEFJZj
8t0+TU1KLvE/bR/9QSDsE6maMB8GA1UdIwQYMBaAFJDDOKA+QXEL+YWTs5m6ltCi
JRuoMAkGA1UdEwQCMAAwCwYDVR0PBAQDAgWgMFwGA1UdEQRVMFOCCWxvY2FsaG9z
dIIVbG9jYWxob3N0LmxvY2FsZG9tYWluggkxMjcuMC4wLjGCAzo6MYIHZmU4MDo6
MYcEfwAAAYcQAAAAAAAAAAAAAAAAAAAAATAsBglghkgBhvhCAQ0EHxYdT3BlblNT
TCBHZW5lcmF0ZWQgQ2VydGlmaWNhdGUwDQYJKoZIhvcNAQELBQADggIBAHNoNXD2
z0i37Yq6T0I3yiDSfnMJ9PnaAFWWsaQ6+hZHN9p8nzBK8noOYLpjv0ZXIvM91QAp
rviOZ3s4W++qs7ArWk37rbtdLRSrkuTEtUb+mhjalPSup5rAwYyaFFoBsoQSgp5g
HAr6e1MQmIRTbzWoektxjlaHFxLjzzrivuPAO1Ef+d5TspRjLiEDdJQwcK3bazy/
1u63eLbFi4XlEqNKelckhcb0ou9V5061UqJQbXX0Xq/1nrXEWSLVt4chvCPS7c0I
p6GlJXYP704aPweIY0Y86XH2SWI11uHUL0SrI6OjeExFURxLegJgtT2GK4PFvfGX
ULIzBk5IAQovJKHp5pdRHFVJfggOktBpysxxrz37ozXQXYd6KDIf+Fxf8R2aLifh
L0EzXbEIftYlA0FCt1BsD9HzIFjtEg5YMDKLDXXvwxK4DZcXbFFiSRJrpwE8xlEe
bNrZDfyPgkVdUp/nI1pKdqWqaEGeM1t3prqvHn4Foq7PHcynsPdg+xFM4XsXcH8B
e9MOil7BoIBqXVqAqGB5NBloRzTvS8xQgd8Y4d9ZBmya06SMOOofpunmi2CQeyXO
9/AmZAQcIJTnSaFmP+wfAjG9dcmNOSoxh6WtvQ7iaC1bNnZ5kJeenTZppfKsx1mH
ptuAnawaNNLSvewpPaMIUplIy6IEdUSHR5GU
-----END CERTIFICATE-----
