Certificate:
    Data:
        Version: 3 (0x2)
        Serial Number: 1 (0x1)
        Signature Algorithm: sha256WithRSAEncryption
        Issuer: C=US, ST=CA, L=Los Angeles, O=Constant Digital Holdings, LLC, OU=Not For Production Use, CN=Constant Digital Holdings, LLC - Dev/emailAddress=sean@constantdigital.com
        Validity
            Not Before: Dec 16 20:22:11 2022 GMT
            Not After : May  2 20:22:11 2050 GMT
        Subject: C=US, ST=CA, L=Los Angeles, O=Constant Digital Holdings, LLC - For Dev Use ONLY, CN=Constant Digital Holdings, LLC - Not For Production Use
        Subject Public Key Info:
            Public Key Algorithm: rsaEncryption
                RSA Public-Key: (2048 bit)
                Modulus:
                    00:b0:74:a8:bd:3f:5a:b5:4c:85:a8:0b:fd:82:24:
                    73:9c:d5:88:a7:a2:cb:59:89:56:b6:45:e0:b8:2d:
                    e0:18:e4:1a:59:ac:f8:d8:68:4c:6b:db:e9:38:db:
                    d6:64:45:38:51:64:e2:69:b6:f8:48:c8:da:05:c3:
                    cc:dd:e4:f1:4d:cb:87:61:6e:57:74:1c:aa:3c:07:
                    3e:ee:b2:f4:c2:4d:f6:94:b7:e0:fc:03:a2:c9:ec:
                    9b:92:5c:78:4e:78:27:12:74:67:65:7b:65:bb:66:
                    c3:fa:85:30:f9:1a:db:62:06:46:ec:10:5f:86:8b:
                    5a:fd:8e:83:b6:e2:86:ff:ce:28:b8:5e:ad:e4:ed:
                    65:af:f8:3a:65:93:88:9a:b9:d8:d0:1a:5a:53:14:
                    26:40:b5:2e:a7:fa:3b:7c:8b:d0:48:35:b5:28:87:
                    59:b8:5a:bd:6e:0f:5e:80:ae:d9:b2:08:a6:65:68:
                    60:72:e7:a5:db:ae:e8:02:55:04:1d:08:6a:35:43:
                    be:5e:02:65:93:f8:83:f4:d0:55:20:79:ca:54:d5:
                    91:0d:9d:b6:bc:3b:23:16:12:3b:c1:6a:62:2e:66:
                    43:bd:e7:7b:d0:d8:b2:4b:5c:52:0c:99:23:74:9f:
                    d9:cc:3c:b8:e2:9b:17:3a:1a:bb:b7:f8:1e:f2:1e:
                    83:3b
                Exponent: 65537 (0x10001)
        X509v3 extensions:
            X509v3 Subject Key Identifier: 
                DD:19:CB:BA:55:2A:40:0A:3A:11:35:53:9C:E9:E2:86:16:2D:E3:9B
            X509v3 Authority Key Identifier: 
                keyid:13:12:48:41:5D:76:30:EF:13:29:3D:9D:F5:DC:35:09:44:55:D1:13

            X509v3 Basic Constraints: 
                CA:FALSE
            X509v3 Key Usage: 
                Digital Signature, Key Encipherment
            X509v3 Subject Alternative Name: 
                DNS:localhost, DNS:localhost.localdomain, DNS:127.0.0.1, DNS:::1, DNS:fe80::1, IP Address:127.0.0.1, IP Address:0:0:0:0:0:0:0:1
            Netscape Comment: 
                OpenSSL Generated Certificate
    Signature Algorithm: sha256WithRSAEncryption
         65:19:e9:b1:dd:4b:e1:65:c7:90:92:45:8f:f5:83:c4:11:45:
         35:6f:d6:77:8b:79:03:4e:61:33:b1:8f:77:08:ac:c7:14:42:
         1d:ae:69:5f:e0:60:a2:35:4c:39:58:0c:55:f5:bf:d8:83:ef:
         8c:bb:7b:e4:2e:67:9c:85:d9:42:7b:e4:75:c1:34:4d:2c:2c:
         28:7a:41:f3:b0:a9:92:c7:96:ff:a3:28:2b:6e:3d:38:68:85:
         43:f9:83:68:37:4a:5a:f7:5d:66:23:1a:de:9d:fa:5b:1a:f1:
         a7:6a:82:f4:8c:29:8c:ee:d9:0a:98:51:3f:ad:0d:33:e0:52:
         b5:80:8c:56:84:6d:44:87:aa:cd:74:a6:07:89:62:d1:20:ae:
         ff:7d:92:0b:e0:9c:3a:88:59:5e:5f:72:74:5c:0e:d2:bc:76:
         c8:59:70:e7:06:0b:64:e1:3e:ff:03:be:04:d4:67:34:a4:d5:
         e9:4e:9e:90:77:d4:01:3d:db:ed:14:e8:c9:48:58:d0:b8:2d:
         32:97:f6:62:30:e2:f2:ec:27:10:fa:7b:cf:30:ba:23:cb:d1:
         7f:77:2f:9c:4e:88:69:79:0d:52:f4:54:bd:be:b5:e5:72:7e:
         aa:12:8a:f2:fb:b7:1f:c4:69:44:98:ad:ef:1d:e1:f3:1b:24:
         4c:41:fa:c0:a0:ca:0a:ae:ab:10:a8:1e:86:b0:95:7f:b1:84:
         bb:22:b1:4b:ef:db:f8:41:ef:d6:b9:86:69:31:0f:03:82:12:
         67:3b:4a:89:c2:82:6b:3c:fb:56:97:2a:54:e0:52:0b:ef:94:
         cb:ed:b2:b3:5a:d8:aa:a5:a0:4d:a3:f9:fa:59:b3:c5:1e:64:
         97:13:4e:b8:d4:0e:19:6d:62:ea:27:55:31:da:88:19:7d:03:
         b8:50:0e:35:8e:0d:20:3a:a8:64:29:f4:d8:ef:cc:c7:8e:45:
         17:c4:d0:02:f4:a7:be:11:ae:76:bf:3d:6f:02:1e:e2:f2:83:
         0b:c8:88:30:3f:6f:d3:16:2d:db:24:79:92:ac:c7:95:b5:74:
         c3:49:ad:ab:b1:3b:35:0d:dc:06:35:cf:0b:3b:d6:4f:bf:ac:
         f8:71:9b:b6:88:de:74:33:66:54:6c:4d:98:47:3b:21:c3:be:
         17:53:9b:59:c7:14:23:ea:cd:38:e8:7c:bb:c4:b5:e8:46:06:
         f0:3c:a2:c9:48:6a:ea:3e:7e:db:5a:c5:11:e9:b6:71:8a:07:
         58:69:60:14:2e:a2:9e:92:6f:6c:d0:84:06:ae:94:50:0a:d4:
         6a:10:bc:c2:0b:ae:93:c1:5e:c1:d1:7c:9f:cc:df:ce:41:e7:
         45:ef:8a:73:b2:d0:6f:bc
-----BEGIN CERTIFICATE-----
MIIF5zCCA8+gAwIBAgIBATANBgkqhkiG9w0BAQsFADCB0jELMAkGA1UEBhMCVVMx
CzAJBgNVBAgMAkNBMRQwEgYDVQQHDAtMb3MgQW5nZWxlczEnMCUGA1UECgweQ29u
c3RhbnQgRGlnaXRhbCBIb2xkaW5ncywgTExDMR8wHQYDVQQLDBZOb3QgRm9yIFBy
b2R1Y3Rpb24gVXNlMS0wKwYDVQQDDCRDb25zdGFudCBEaWdpdGFsIEhvbGRpbmdz
LCBMTEMgLSBEZXYxJzAlBgkqhkiG9w0BCQEWGHNlYW5AY29uc3RhbnRkaWdpdGFs
LmNvbTAgFw0yMjEyMTYyMDIyMTFaGA8yMDUwMDUwMjIwMjIxMVowga4xCzAJBgNV
BAYTAlVTMQswCQYDVQQIDAJDQTEUMBIGA1UEBwwLTG9zIEFuZ2VsZXMxOjA4BgNV
BAoMMUNvbnN0YW50IERpZ2l0YWwgSG9sZGluZ3MsIExMQyAtIEZvciBEZXYgVXNl
IE9OTFkxQDA+BgNVBAMMN0NvbnN0YW50IERpZ2l0YWwgSG9sZGluZ3MsIExMQyAt
IE5vdCBGb3IgUHJvZHVjdGlvbiBVc2UwggEiMA0GCSqGSIb3DQEBAQUAA4IBDwAw
ggEKAoIBAQCwdKi9P1q1TIWoC/2CJHOc1YinostZiVa2ReC4LeAY5BpZrPjYaExr
2+k429ZkRThRZOJptvhIyNoFw8zd5PFNy4dhbld0HKo8Bz7usvTCTfaUt+D8A6LJ
7JuSXHhOeCcSdGdle2W7ZsP6hTD5GttiBkbsEF+Gi1r9joO24ob/zii4Xq3k7WWv
+Dplk4iaudjQGlpTFCZAtS6n+jt8i9BINbUoh1m4Wr1uD16ArtmyCKZlaGBy56Xb
rugCVQQdCGo1Q75eAmWT+IP00FUgecpU1ZENnba8OyMWEjvBamIuZkO953vQ2LJL
XFIMmSN0n9nMPLjimxc6Gru3+B7yHoM7AgMBAAGjgecwgeQwHQYDVR0OBBYEFN0Z
y7pVKkAKOhE1U5zp4oYWLeObMB8GA1UdIwQYMBaAFBMSSEFddjDvEyk9nfXcNQlE
VdETMAkGA1UdEwQCMAAwCwYDVR0PBAQDAgWgMFwGA1UdEQRVMFOCCWxvY2FsaG9z
dIIVbG9jYWxob3N0LmxvY2FsZG9tYWluggkxMjcuMC4wLjGCAzo6MYIHZmU4MDo6
MYcEfwAAAYcQAAAAAAAAAAAAAAAAAAAAATAsBglghkgBhvhCAQ0EHxYdT3BlblNT
TCBHZW5lcmF0ZWQgQ2VydGlmaWNhdGUwDQYJKoZIhvcNAQELBQADggIBAGUZ6bHd
S+Flx5CSRY/1g8QRRTVv1neLeQNOYTOxj3cIrMcUQh2uaV/gYKI1TDlYDFX1v9iD
74y7e+QuZ5yF2UJ75HXBNE0sLCh6QfOwqZLHlv+jKCtuPThohUP5g2g3Slr3XWYj
Gt6d+lsa8adqgvSMKYzu2QqYUT+tDTPgUrWAjFaEbUSHqs10pgeJYtEgrv99kgvg
nDqIWV5fcnRcDtK8dshZcOcGC2ThPv8DvgTUZzSk1elOnpB31AE92+0U6MlIWNC4
LTKX9mIw4vLsJxD6e88wuiPL0X93L5xOiGl5DVL0VL2+teVyfqoSivL7tx/EaUSY
re8d4fMbJExB+sCgygquqxCoHoawlX+xhLsisUvv2/hB79a5hmkxDwOCEmc7SonC
gms8+1aXKlTgUgvvlMvtsrNa2KqloE2j+fpZs8UeZJcTTrjUDhltYuonVTHaiBl9
A7hQDjWODSA6qGQp9NjvzMeORRfE0AL0p74Rrna/PW8CHuLygwvIiDA/b9MWLdsk
eZKsx5W1dMNJrauxOzUN3AY1zws71k+/rPhxm7aI3nQzZlRsTZhHOyHDvhdTm1nH
FCPqzTjofLvEtehGBvA8oslIauo+fttaxRHptnGKB1hpYBQuop6Sb2zQhAaulFAK
1GoQvMILrpPBXsHRfJ/M385B50XvinOy0G+8
-----END CERTIFICATE-----
